; ModuleID = '24/2545.c'
source_filename = "24/2545.c"
target datalayout = "e-m:e-p270:32:32-p271:32:32-p272:64:64-i64:64-f80:128-n8:16:32:64-S128"
target triple = "x86_64-pc-linux-gnu"

@.str = private unnamed_addr constant [3 x i8] c"%d\00", align 1
@.str.1 = private unnamed_addr constant [3 x i8] c"%s\00", align 1
@.str.2 = private unnamed_addr constant [2 x i8] c"\0A\00", align 1

; Function Attrs: noinline nounwind uwtable
define dso_local i32 @main(i32 %0, i8** %1) #0 {
  %3 = alloca i32, align 4
  %4 = alloca i32, align 4
  %5 = alloca i8**, align 8
  %6 = alloca i32, align 4
  %7 = alloca i32, align 4
  %8 = alloca i32, align 4
  %9 = alloca i32, align 4
  %10 = alloca i32, align 4
  %11 = alloca i32, align 4
  %12 = alloca [201 x [255 x i8]], align 16
  %13 = alloca [201 x i32], align 16
  store i32 0, i32* %3, align 4
  store i32 %0, i32* %4, align 4
  store i8** %1, i8*** %5, align 8
  store i32 0, i32* %10, align 4
  store i32 100, i32* %11, align 4
  %14 = call i32 (i8*, ...) @__isoc99_scanf(i8* getelementptr inbounds ([3 x i8], [3 x i8]* @.str, i64 0, i64 0), i32* %6)
  store i32 0, i32* %8, align 4
  br label %15

15:                                               ; preds = %59, %2
  %16 = load i32, i32* %8, align 4
  %17 = load i32, i32* %6, align 4
  %18 = icmp slt i32 %16, %17
  br i1 %18, label %19, label %62

19:                                               ; preds = %15
  %20 = load i32, i32* %8, align 4
  %21 = sext i32 %20 to i64
  %22 = getelementptr inbounds [201 x [255 x i8]], [201 x [255 x i8]]* %12, i64 0, i64 %21
  %23 = getelementptr inbounds [255 x i8], [255 x i8]* %22, i64 0, i64 0
  %24 = call i32 (i8*, ...) @__isoc99_scanf(i8* getelementptr inbounds ([3 x i8], [3 x i8]* @.str.1, i64 0, i64 0), i8* %23)
  %25 = call i32 @getchar()
  %26 = load i32, i32* %8, align 4
  %27 = sext i32 %26 to i64
  %28 = getelementptr inbounds [201 x [255 x i8]], [201 x [255 x i8]]* %12, i64 0, i64 %27
  %29 = getelementptr inbounds [255 x i8], [255 x i8]* %28, i64 0, i64 0
  %30 = call i64 @strlen(i8* %29) #3
  %31 = trunc i64 %30 to i32
  %32 = load i32, i32* %8, align 4
  %33 = sext i32 %32 to i64
  %34 = getelementptr inbounds [201 x i32], [201 x i32]* %13, i64 0, i64 %33
  store i32 %31, i32* %34, align 4
  %35 = load i32, i32* %8, align 4
  %36 = sext i32 %35 to i64
  %37 = getelementptr inbounds [201 x i32], [201 x i32]* %13, i64 0, i64 %36
  %38 = load i32, i32* %37, align 4
  %39 = load i32, i32* %10, align 4
  %40 = icmp sgt i32 %38, %39
  br i1 %40, label %41, label %46

41:                                               ; preds = %19
  %42 = load i32, i32* %8, align 4
  %43 = sext i32 %42 to i64
  %44 = getelementptr inbounds [201 x i32], [201 x i32]* %13, i64 0, i64 %43
  %45 = load i32, i32* %44, align 4
  store i32 %45, i32* %10, align 4
  br label %46

46:                                               ; preds = %41, %19
  %47 = load i32, i32* %8, align 4
  %48 = sext i32 %47 to i64
  %49 = getelementptr inbounds [201 x i32], [201 x i32]* %13, i64 0, i64 %48
  %50 = load i32, i32* %49, align 4
  %51 = load i32, i32* %11, align 4
  %52 = icmp slt i32 %50, %51
  br i1 %52, label %53, label %58

53:                                               ; preds = %46
  %54 = load i32, i32* %8, align 4
  %55 = sext i32 %54 to i64
  %56 = getelementptr inbounds [201 x i32], [201 x i32]* %13, i64 0, i64 %55
  %57 = load i32, i32* %56, align 4
  store i32 %57, i32* %11, align 4
  br label %58

58:                                               ; preds = %53, %46
  br label %59

59:                                               ; preds = %58
  %60 = load i32, i32* %8, align 4
  %61 = add nsw i32 %60, 1
  store i32 %61, i32* %8, align 4
  br label %15

62:                                               ; preds = %15
  store i32 0, i32* %8, align 4
  br label %63

63:                                               ; preds = %82, %62
  %64 = load i32, i32* %8, align 4
  %65 = load i32, i32* %6, align 4
  %66 = icmp slt i32 %64, %65
  br i1 %66, label %67, label %85

67:                                               ; preds = %63
  %68 = load i32, i32* %8, align 4
  %69 = sext i32 %68 to i64
  %70 = getelementptr inbounds [201 x i32], [201 x i32]* %13, i64 0, i64 %69
  %71 = load i32, i32* %70, align 4
  %72 = load i32, i32* %10, align 4
  %73 = icmp eq i32 %71, %72
  br i1 %73, label %74, label %81

74:                                               ; preds = %67
  %75 = load i32, i32* %8, align 4
  %76 = sext i32 %75 to i64
  %77 = getelementptr inbounds [201 x [255 x i8]], [201 x [255 x i8]]* %12, i64 0, i64 %76
  %78 = getelementptr inbounds [255 x i8], [255 x i8]* %77, i64 0, i64 0
  %79 = call i32 @puts(i8* %78)
  %80 = call i32 (i8*, ...) @printf(i8* getelementptr inbounds ([2 x i8], [2 x i8]* @.str.2, i64 0, i64 0))
  br label %85

81:                                               ; preds = %67
  br label %82

82:                                               ; preds = %81
  %83 = load i32, i32* %8, align 4
  %84 = add nsw i32 %83, 1
  store i32 %84, i32* %8, align 4
  br label %63

85:                                               ; preds = %74, %63
  store i32 0, i32* %8, align 4
  br label %86

86:                                               ; preds = %105, %85
  %87 = load i32, i32* %8, align 4
  %88 = load i32, i32* %6, align 4
  %89 = icmp slt i32 %87, %88
  br i1 %89, label %90, label %108

90:                                               ; preds = %86
  %91 = load i32, i32* %8, align 4
  %92 = sext i32 %91 to i64
  %93 = getelementptr inbounds [201 x i32], [201 x i32]* %13, i64 0, i64 %92
  %94 = load i32, i32* %93, align 4
  %95 = load i32, i32* %11, align 4
  %96 = icmp eq i32 %94, %95
  br i1 %96, label %97, label %104

97:                                               ; preds = %90
  %98 = load i32, i32* %8, align 4
  %99 = sext i32 %98 to i64
  %100 = getelementptr inbounds [201 x [255 x i8]], [201 x [255 x i8]]* %12, i64 0, i64 %99
  %101 = getelementptr inbounds [255 x i8], [255 x i8]* %100, i64 0, i64 0
  %102 = call i32 @puts(i8* %101)
  %103 = call i32 (i8*, ...) @printf(i8* getelementptr inbounds ([2 x i8], [2 x i8]* @.str.2, i64 0, i64 0))
  br label %108

104:                                              ; preds = %90
  br label %105

105:                                              ; preds = %104
  %106 = load i32, i32* %8, align 4
  %107 = add nsw i32 %106, 1
  store i32 %107, i32* %8, align 4
  br label %86

108:                                              ; preds = %97, %86
  ret i32 0
}

declare dso_local i32 @__isoc99_scanf(i8*, ...) #1

declare dso_local i32 @getchar() #1

; Function Attrs: nounwind readonly
declare dso_local i64 @strlen(i8*) #2

declare dso_local i32 @puts(i8*) #1

declare dso_local i32 @printf(i8*, ...) #1


!llvm.module.flags = !{!0}
!llvm.ident = !{!1}

!0 = !{i32 1, !"wchar_size", i32 4}
!1 = !{!"clang version 10.0.0-4ubuntu1 "}
